ccopy_reg
_reconstructor
p1
(cargparse
Namespace
p2
c__builtin__
object
p3
NtRp4
(dp5
S'modelfile'
p6
NsS'grad_clip'
p7
F10
sS'rnn_size'
p8
I200
sS'data_scale'
p9
F32768
sS'learning_rate'
p10
F0.0050000000000000001
sS'num_epochs'
p11
I100
sS'seq_length'
p12
I500
sS'decay_rate'
p13
F0.94999999999999996
sS'num_mixture'
p14
I1
sS'batch_size'
p15
I50
sS'num_layers'
p16
I1
sS'model'
p17
S'lstm'
p18
sS'supmodel'
p19
S'2D'
p20
sS'save_every'
p21
I100
sS'keep_prob'
p22
F1
sb.