ccopy_reg
_reconstructor
p1
(cargparse
Namespace
p2
c__builtin__
object
p3
NtRp4
(dp5
S'modelfile'
p6
S'save/model.ckpt-3600'
p7
sS'grad_clip'
p8
F10
sS'rnn_size'
p9
I256
sS'data_scale'
p10
F1000
sS'learning_rate'
p11
F0.0001
sS'num_epochs'
p12
I51
sS'datafile'
p13
S'mso5s.cpkl'
p14
sS'seq_length'
p15
I100
sS'decay_rate'
p16
F0.94999999999999996
sS'num_mixture'
p17
I5
sS'batch_size'
p18
I50
sS'num_layers'
p19
I2
sS'model'
p20
S'lstm'
p21
sS'supmodel'
p22
S'2D'
p23
sS'save_every'
p24
I100
sS'keep_prob'
p25
F0.5
sb.